target datalayout = "e-m:e-p270:32:32-p271:32:32-p272:64:64-i64:64-i128:128-f80:128-n8:16:32:64-S128"
target triple = "x86_64-pc-linux-gnu"

%struct.prio_queue = type { ptr, i64, ptr, i64, i64, ptr }
%struct.prio_queue_entry = type { i64, ptr }

@.str.2 = private unnamed_addr constant [27 x i8] c"size_t overflow: %lu * %lu\00", align 1

; Function Attrs: inlinehint nounwind uwtable
define internal void @swap(ptr noundef %0, i64 noundef %1, i64 noundef %2) #3 {
  %4 = alloca ptr, align 8
  %5 = alloca i64, align 8
  %6 = alloca i64, align 8
  %7 = alloca ptr, align 8
  %8 = alloca ptr, align 8
  %9 = alloca [16 x i8], align 16
  store ptr %0, ptr %4, align 8, !tbaa !4
  store i64 %1, ptr %5, align 8, !tbaa !14
  store i64 %2, ptr %6, align 8, !tbaa !14
  br label %10

10:                                               ; preds = %3
  call void @llvm.lifetime.start.p0(i64 8, ptr %7) #7
  %11 = load ptr, ptr %4, align 8, !tbaa !4
  %12 = getelementptr inbounds nuw %struct.prio_queue, ptr %11, i32 0, i32 5
  %13 = load ptr, ptr %12, align 8, !tbaa !17
  %14 = load i64, ptr %5, align 8, !tbaa !14
  %15 = getelementptr inbounds nuw %struct.prio_queue_entry, ptr %13, i64 %14
  store ptr %15, ptr %7, align 8, !tbaa !18
  call void @llvm.lifetime.start.p0(i64 8, ptr %8) #7
  %16 = load ptr, ptr %4, align 8, !tbaa !4
  %17 = getelementptr inbounds nuw %struct.prio_queue, ptr %16, i32 0, i32 5
  %18 = load ptr, ptr %17, align 8, !tbaa !17
  %19 = load i64, ptr %6, align 8, !tbaa !14
  %20 = getelementptr inbounds nuw %struct.prio_queue_entry, ptr %18, i64 %19
  store ptr %20, ptr %8, align 8, !tbaa !18
  call void @llvm.lifetime.start.p0(i64 16, ptr %9) #7
  %21 = getelementptr inbounds [16 x i8], ptr %9, i64 0, i64 0
  %22 = load ptr, ptr %7, align 8, !tbaa !18
  call void @llvm.memcpy.p0.p0.i64(ptr align 16 %21, ptr align 1 %22, i64 16, i1 false)
  %23 = load ptr, ptr %7, align 8, !tbaa !18
  %24 = load ptr, ptr %8, align 8, !tbaa !18
  call void @llvm.memcpy.p0.p0.i64(ptr align 1 %23, ptr align 1 %24, i64 16, i1 false)
  %25 = load ptr, ptr %8, align 8, !tbaa !18
  %26 = getelementptr inbounds [16 x i8], ptr %9, i64 0, i64 0
  call void @llvm.memcpy.p0.p0.i64(ptr align 1 %25, ptr align 16 %26, i64 16, i1 false)
  call void @llvm.lifetime.end.p0(i64 16, ptr %9) #7
  call void @llvm.lifetime.end.p0(i64 8, ptr %8) #7
  call void @llvm.lifetime.end.p0(i64 8, ptr %7) #7
  br label %27

27:                                               ; preds = %10
  ret void
}

; Function Attrs: inlinehint nounwind uwtable
define internal i32 @compare(ptr noundef %0, i64 noundef %1, i64 noundef %2) #3 {
  %4 = alloca ptr, align 8
  %5 = alloca i64, align 8
  %6 = alloca i64, align 8
  %7 = alloca i32, align 4
  store ptr %0, ptr %4, align 8, !tbaa !4
  store i64 %1, ptr %5, align 8, !tbaa !14
  store i64 %2, ptr %6, align 8, !tbaa !14
  call void @llvm.lifetime.start.p0(i64 4, ptr %7) #7
  %8 = load ptr, ptr %4, align 8, !tbaa !4
  %9 = getelementptr inbounds nuw %struct.prio_queue, ptr %8, i32 0, i32 0
  %10 = load ptr, ptr %9, align 8, !tbaa !9
  %11 = load ptr, ptr %4, align 8, !tbaa !4
  %12 = getelementptr inbounds nuw %struct.prio_queue, ptr %11, i32 0, i32 5
  %13 = load ptr, ptr %12, align 8, !tbaa !17
  %14 = load i64, ptr %5, align 8, !tbaa !14
  %15 = getelementptr inbounds nuw %struct.prio_queue_entry, ptr %13, i64 %14
  %16 = getelementptr inbounds nuw %struct.prio_queue_entry, ptr %15, i32 0, i32 1
  %17 = load ptr, ptr %16, align 8, !tbaa !23
  %18 = load ptr, ptr %4, align 8, !tbaa !4
  %19 = getelementptr inbounds nuw %struct.prio_queue, ptr %18, i32 0, i32 5
  %20 = load ptr, ptr %19, align 8, !tbaa !17
  %21 = load i64, ptr %6, align 8, !tbaa !14
  %22 = getelementptr inbounds nuw %struct.prio_queue_entry, ptr %20, i64 %21
  %23 = getelementptr inbounds nuw %struct.prio_queue_entry, ptr %22, i32 0, i32 1
  %24 = load ptr, ptr %23, align 8, !tbaa !23
  %25 = load ptr, ptr %4, align 8, !tbaa !4
  %26 = getelementptr inbounds nuw %struct.prio_queue, ptr %25, i32 0, i32 2
  %27 = load ptr, ptr %26, align 8, !tbaa !25
  %28 = call i32 %10(ptr noundef %17, ptr noundef %24, ptr noundef %27)
  store i32 %28, ptr %7, align 4, !tbaa !26
  %29 = load i32, ptr %7, align 4, !tbaa !26
  %30 = icmp ne i32 %29, 0
  br i1 %30, label %65, label %31

31:                                               ; preds = %3
  %32 = load ptr, ptr %4, align 8, !tbaa !4
  %33 = getelementptr inbounds nuw %struct.prio_queue, ptr %32, i32 0, i32 5
  %34 = load ptr, ptr %33, align 8, !tbaa !17
  %35 = load i64, ptr %5, align 8, !tbaa !14
  %36 = getelementptr inbounds nuw %struct.prio_queue_entry, ptr %34, i64 %35
  %37 = getelementptr inbounds nuw %struct.prio_queue_entry, ptr %36, i32 0, i32 0
  %38 = load i64, ptr %37, align 8, !tbaa !21
  %39 = load ptr, ptr %4, align 8, !tbaa !4
  %40 = getelementptr inbounds nuw %struct.prio_queue, ptr %39, i32 0, i32 5
  %41 = load ptr, ptr %40, align 8, !tbaa !17
  %42 = load i64, ptr %6, align 8, !tbaa !14
  %43 = getelementptr inbounds nuw %struct.prio_queue_entry, ptr %41, i64 %42
  %44 = getelementptr inbounds nuw %struct.prio_queue_entry, ptr %43, i32 0, i32 0
  %45 = load i64, ptr %44, align 8, !tbaa !21
  %46 = icmp ugt i64 %38, %45
  %47 = zext i1 %46 to i32
  %48 = load ptr, ptr %4, align 8, !tbaa !4
  %49 = getelementptr inbounds nuw %struct.prio_queue, ptr %48, i32 0, i32 5
  %50 = load ptr, ptr %49, align 8, !tbaa !17
  %51 = load i64, ptr %5, align 8, !tbaa !14
  %52 = getelementptr inbounds nuw %struct.prio_queue_entry, ptr %50, i64 %51
  %53 = getelementptr inbounds nuw %struct.prio_queue_entry, ptr %52, i32 0, i32 0
  %54 = load i64, ptr %53, align 8, !tbaa !21
  %55 = load ptr, ptr %4, align 8, !tbaa !4
  %56 = getelementptr inbounds nuw %struct.prio_queue, ptr %55, i32 0, i32 5
  %57 = load ptr, ptr %56, align 8, !tbaa !17
  %58 = load i64, ptr %6, align 8, !tbaa !14
  %59 = getelementptr inbounds nuw %struct.prio_queue_entry, ptr %57, i64 %58
  %60 = getelementptr inbounds nuw %struct.prio_queue_entry, ptr %59, i32 0, i32 0
  %61 = load i64, ptr %60, align 8, !tbaa !21
  %62 = icmp ult i64 %54, %61
  %63 = zext i1 %62 to i32
  %64 = sub nsw i32 %47, %63
  store i32 %64, ptr %7, align 4, !tbaa !26
  br label %65

65:                                               ; preds = %31, %3
  %66 = load i32, ptr %7, align 4, !tbaa !26
  call void @llvm.lifetime.end.p0(i64 4, ptr %7) #7
  ret i32 %66
}

; Function Attrs: inlinehint nounwind uwtable
define internal i64 @st_mult(i64 noundef %0, i64 noundef %1) #3 {
  %3 = alloca i64, align 8
  %4 = alloca i64, align 8
  store i64 %0, ptr %3, align 8, !tbaa !14
  store i64 %1, ptr %4, align 8, !tbaa !14
  %5 = load i64, ptr %3, align 8, !tbaa !14
  %6 = icmp ne i64 %5, 0
  br i1 %6, label %7, label %15

7:                                                ; preds = %2
  %8 = load i64, ptr %4, align 8, !tbaa !14
  %9 = load i64, ptr %3, align 8, !tbaa !14
  %10 = udiv i64 -1, %9
  %11 = icmp ugt i64 %8, %10
  br i1 %11, label %12, label %15

12:                                               ; preds = %7
  %13 = load i64, ptr %3, align 8, !tbaa !14
  %14 = load i64, ptr %4, align 8, !tbaa !14
  call void (ptr, ...) @die(ptr noundef @.str.2, i64 noundef %13, i64 noundef %14) #8
  unreachable

15:                                               ; preds = %7, %2
  %16 = load i64, ptr %3, align 8, !tbaa !14
  %17 = load i64, ptr %4, align 8, !tbaa !14
  %18 = mul i64 %16, %17
  ret i64 %18
}

; Function Attrs: nounwind uwtable
define dso_local void @prio_queue_put(ptr noundef %0, ptr noundef %1) #0 {
  %3 = alloca ptr, align 8
  %4 = alloca ptr, align 8
  %5 = alloca i64, align 8
  %6 = alloca i64, align 8
  %7 = alloca i32, align 4
  store ptr %0, ptr %3, align 8, !tbaa !4
  store ptr %1, ptr %4, align 8, !tbaa !18
  call void @llvm.lifetime.start.p0(i64 8, ptr %5) #7
  call void @llvm.lifetime.start.p0(i64 8, ptr %6) #7
  br label %8

8:                                                ; preds = %2
  %9 = load ptr, ptr %3, align 8, !tbaa !4
  %10 = getelementptr inbounds nuw %struct.prio_queue, ptr %9, i32 0, i32 4
  %11 = load i64, ptr %10, align 8, !tbaa !13
  %12 = add i64 %11, 1
  %13 = load ptr, ptr %3, align 8, !tbaa !4
  %14 = getelementptr inbounds nuw %struct.prio_queue, ptr %13, i32 0, i32 3
  %15 = load i64, ptr %14, align 8, !tbaa !19
  %16 = icmp ugt i64 %12, %15
  br i1 %16, label %17, label %56

17:                                               ; preds = %8
  %18 = load ptr, ptr %3, align 8, !tbaa !4
  %19 = getelementptr inbounds nuw %struct.prio_queue, ptr %18, i32 0, i32 3
  %20 = load i64, ptr %19, align 8, !tbaa !19
  %21 = add i64 %20, 16
  %22 = mul i64 %21, 3
  %23 = udiv i64 %22, 2
  %24 = load ptr, ptr %3, align 8, !tbaa !4
  %25 = getelementptr inbounds nuw %struct.prio_queue, ptr %24, i32 0, i32 4
  %26 = load i64, ptr %25, align 8, !tbaa !13
  %27 = add i64 %26, 1
  %28 = icmp ult i64 %23, %27
  br i1 %28, label %29, label %36

29:                                               ; preds = %17
  %30 = load ptr, ptr %3, align 8, !tbaa !4
  %31 = getelementptr inbounds nuw %struct.prio_queue, ptr %30, i32 0, i32 4
  %32 = load i64, ptr %31, align 8, !tbaa !13
  %33 = add i64 %32, 1
  %34 = load ptr, ptr %3, align 8, !tbaa !4
  %35 = getelementptr inbounds nuw %struct.prio_queue, ptr %34, i32 0, i32 3
  store i64 %33, ptr %35, align 8, !tbaa !19
  br label %45

36:                                               ; preds = %17
  %37 = load ptr, ptr %3, align 8, !tbaa !4
  %38 = getelementptr inbounds nuw %struct.prio_queue, ptr %37, i32 0, i32 3
  %39 = load i64, ptr %38, align 8, !tbaa !19
  %40 = add i64 %39, 16
  %41 = mul i64 %40, 3
  %42 = udiv i64 %41, 2
  %43 = load ptr, ptr %3, align 8, !tbaa !4
  %44 = getelementptr inbounds nuw %struct.prio_queue, ptr %43, i32 0, i32 3
  store i64 %42, ptr %44, align 8, !tbaa !19
  br label %45

45:                                               ; preds = %36, %29
  %46 = load ptr, ptr %3, align 8, !tbaa !4
  %47 = getelementptr inbounds nuw %struct.prio_queue, ptr %46, i32 0, i32 5
  %48 = load ptr, ptr %47, align 8, !tbaa !17
  %49 = load ptr, ptr %3, align 8, !tbaa !4
  %50 = getelementptr inbounds nuw %struct.prio_queue, ptr %49, i32 0, i32 3
  %51 = load i64, ptr %50, align 8, !tbaa !19
  %52 = call i64 @st_mult(i64 noundef 16, i64 noundef %51)
  %53 = call ptr @xrealloc(ptr noundef %48, i64 noundef %52)
  %54 = load ptr, ptr %3, align 8, !tbaa !4
  %55 = getelementptr inbounds nuw %struct.prio_queue, ptr %54, i32 0, i32 5
  store ptr %53, ptr %55, align 8, !tbaa !17
  br label %56

56:                                               ; preds = %45, %8
  br label %57

57:                                               ; preds = %56
  br label %58

58:                                               ; preds = %57
  %59 = load ptr, ptr %3, align 8, !tbaa !4
  %60 = getelementptr inbounds nuw %struct.prio_queue, ptr %59, i32 0, i32 1
  %61 = load i64, ptr %60, align 8, !tbaa !20
  %62 = add i64 %61, 1
  store i64 %62, ptr %60, align 8, !tbaa !20
  %63 = load ptr, ptr %3, align 8, !tbaa !4
  %64 = getelementptr inbounds nuw %struct.prio_queue, ptr %63, i32 0, i32 5
  %65 = load ptr, ptr %64, align 8, !tbaa !17
  %66 = load ptr, ptr %3, align 8, !tbaa !4
  %67 = getelementptr inbounds nuw %struct.prio_queue, ptr %66, i32 0, i32 4
  %68 = load i64, ptr %67, align 8, !tbaa !13
  %69 = getelementptr inbounds nuw %struct.prio_queue_entry, ptr %65, i64 %68
  %70 = getelementptr inbounds nuw %struct.prio_queue_entry, ptr %69, i32 0, i32 0
  store i64 %61, ptr %70, align 8, !tbaa !21
  %71 = load ptr, ptr %4, align 8, !tbaa !18
  %72 = load ptr, ptr %3, align 8, !tbaa !4
  %73 = getelementptr inbounds nuw %struct.prio_queue, ptr %72, i32 0, i32 5
  %74 = load ptr, ptr %73, align 8, !tbaa !17
  %75 = load ptr, ptr %3, align 8, !tbaa !4
  %76 = getelementptr inbounds nuw %struct.prio_queue, ptr %75, i32 0, i32 4
  %77 = load i64, ptr %76, align 8, !tbaa !13
  %78 = getelementptr inbounds nuw %struct.prio_queue_entry, ptr %74, i64 %77
  %79 = getelementptr inbounds nuw %struct.prio_queue_entry, ptr %78, i32 0, i32 1
  store ptr %71, ptr %79, align 8, !tbaa !23
  %80 = load ptr, ptr %3, align 8, !tbaa !4
  %81 = getelementptr inbounds nuw %struct.prio_queue, ptr %80, i32 0, i32 4
  %82 = load i64, ptr %81, align 8, !tbaa !13
  %83 = add i64 %82, 1
  store i64 %83, ptr %81, align 8, !tbaa !13
  %84 = load ptr, ptr %3, align 8, !tbaa !4
  %85 = getelementptr inbounds nuw %struct.prio_queue, ptr %84, i32 0, i32 0
  %86 = load ptr, ptr %85, align 8, !tbaa !9
  %87 = icmp ne ptr %86, null
  br i1 %87, label %89, label %88

88:                                               ; preds = %58
  store i32 1, ptr %7, align 4
  br label %114

89:                                               ; preds = %58
  %90 = load ptr, ptr %3, align 8, !tbaa !4
  %91 = getelementptr inbounds nuw %struct.prio_queue, ptr %90, i32 0, i32 4
  %92 = load i64, ptr %91, align 8, !tbaa !13
  %93 = sub i64 %92, 1
  store i64 %93, ptr %5, align 8, !tbaa !14
  br label %94

94:                                               ; preds = %111, %89
  %95 = load i64, ptr %5, align 8, !tbaa !14
  %96 = icmp ne i64 %95, 0
  br i1 %96, label %97, label %113

97:                                               ; preds = %94
  %98 = load i64, ptr %5, align 8, !tbaa !14
  %99 = sub i64 %98, 1
  %100 = udiv i64 %99, 2
  store i64 %100, ptr %6, align 8, !tbaa !14
  %101 = load ptr, ptr %3, align 8, !tbaa !4
  %102 = load i64, ptr %6, align 8, !tbaa !14
  %103 = load i64, ptr %5, align 8, !tbaa !14
  %104 = call i32 @compare(ptr noundef %101, i64 noundef %102, i64 noundef %103)
  %105 = icmp sle i32 %104, 0
  br i1 %105, label %106, label %107

106:                                              ; preds = %97
  br label %113

107:                                              ; preds = %97
  %108 = load ptr, ptr %3, align 8, !tbaa !4
  %109 = load i64, ptr %6, align 8, !tbaa !14
  %110 = load i64, ptr %5, align 8, !tbaa !14
  call void @swap(ptr noundef %108, i64 noundef %109, i64 noundef %110)
  br label %111

111:                                              ; preds = %107
  %112 = load i64, ptr %6, align 8, !tbaa !14
  store i64 %112, ptr %5, align 8, !tbaa !14
  br label %94, !llvm.loop !24

113:                                              ; preds = %106, %94
  store i32 0, ptr %7, align 4
  br label %114

114:                                              ; preds = %113, %88
  call void @llvm.lifetime.end.p0(i64 8, ptr %6) #7
  call void @llvm.lifetime.end.p0(i64 8, ptr %5) #7
  %115 = load i32, ptr %7, align 4
  switch i32 %115, label %117 [
    i32 0, label %116
    i32 1, label %116
  ]

116:                                              ; preds = %114, %114
  ret void

117:                                              ; preds = %114
  unreachable
}