; Function Attrs: nounwind uwtable
define dso_local void @prio_queue_put(ptr noundef captures(none) %0, ptr noundef %1) local_unnamed_addr #0 {
  %3 = alloca [16 x i8], align 16
  %4 = getelementptr inbounds nuw i8, ptr %0, i64 32
  %5 = load i64, ptr %4, align 8, !tbaa !11
  %6 = add i64 %5, 1
  %7 = getelementptr inbounds nuw i8, ptr %0, i64 24
  %8 = load i64, ptr %7, align 8, !tbaa !16
  %9 = icmp ugt i64 %6, %8
  br i1 %9, label %10, label %._crit_edge

._crit_edge:                                      ; preds = %2
  %.phi.trans.insert = getelementptr inbounds nuw i8, ptr %0, i64 40
  %.pre = load ptr, ptr %.phi.trans.insert, align 8, !tbaa !12
  br label %20

10:                                               ; preds = %2
  %11 = mul i64 %8, 3
  %12 = add i64 %11, 48
  %13 = lshr i64 %12, 1
  %. = tail call i64 @llvm.umax.i64(i64 %13, i64 %6)
  store i64 %., ptr %7, align 8, !tbaa !16
  %14 = icmp ugt i64 %., 1152921504606846975
  br i1 %14, label %15, label %st_mult.exit

15:                                               ; preds = %10
  tail call void (ptr, ...) @die(ptr noundef nonnull @.str.2, i64 noundef 16, i64 noundef %.) #10
  unreachable

st_mult.exit:                                     ; preds = %10
  %16 = getelementptr inbounds nuw i8, ptr %0, i64 40
  %17 = load ptr, ptr %16, align 8, !tbaa !12
  %18 = shl nuw i64 %., 4
  %19 = tail call ptr @xrealloc(ptr noundef %17, i64 noundef %18) #11
  store ptr %19, ptr %16, align 8, !tbaa !12
  %.pre34 = load i64, ptr %4, align 8, !tbaa !11
  %.pre35 = add i64 %.pre34, 1
  br label %20

20:                                               ; preds = %._crit_edge, %st_mult.exit
  %.pre-phi = phi i64 [ %6, %._crit_edge ], [ %.pre35, %st_mult.exit ]
  %21 = phi i64 [ %5, %._crit_edge ], [ %.pre34, %st_mult.exit ]
  %22 = phi ptr [ %.pre, %._crit_edge ], [ %19, %st_mult.exit ]
  %23 = getelementptr inbounds nuw i8, ptr %0, i64 8
  %24 = load i64, ptr %23, align 8, !tbaa !15
  %25 = add i64 %24, 1
  store i64 %25, ptr %23, align 8, !tbaa !15
  %26 = getelementptr inbounds nuw i8, ptr %0, i64 40
  %27 = getelementptr inbounds nuw %struct.prio_queue_entry, ptr %22, i64 %21
  store i64 %24, ptr %27, align 8, !tbaa !17
  %28 = getelementptr inbounds nuw %struct.prio_queue_entry, ptr %22, i64 %21, i32 1
  store ptr %1, ptr %28, align 8, !tbaa !19
  store i64 %.pre-phi, ptr %4, align 8, !tbaa !11
  %29 = load ptr, ptr %0, align 8, !tbaa !4
  %.not = icmp eq ptr %29, null
  %.not3132 = icmp eq i64 %21, 0
  %or.cond = or i1 %.not, %.not3132
  br i1 %or.cond, label %.loopexit, label %.lr.ph

.lr.ph:                                           ; preds = %20
  %30 = getelementptr inbounds nuw i8, ptr %0, i64 16
  br label %31

31:                                               ; preds = %.lr.ph, %50
  %.033 = phi i64 [ %21, %.lr.ph ], [ %33, %50 ]
  %32 = add i64 %.033, -1
  %33 = lshr i64 %32, 1
  %34 = load ptr, ptr %0, align 8, !tbaa !4
  %35 = load ptr, ptr %26, align 8, !tbaa !12
  %36 = getelementptr inbounds nuw %struct.prio_queue_entry, ptr %35, i64 %33, i32 1
  %37 = load ptr, ptr %36, align 8, !tbaa !19
  %38 = getelementptr inbounds nuw %struct.prio_queue_entry, ptr %35, i64 %.033, i32 1
  %39 = load ptr, ptr %38, align 8, !tbaa !19
  %40 = load ptr, ptr %30, align 8, !tbaa !20
  %41 = tail call i32 %34(ptr noundef %37, ptr noundef %39, ptr noundef %40) #11
  %.not.i = icmp eq i32 %41, 0
  br i1 %.not.i, label %42, label %compare.exit

42:                                               ; preds = %31
  %43 = load ptr, ptr %26, align 8, !tbaa !12
  %44 = getelementptr inbounds nuw %struct.prio_queue_entry, ptr %43, i64 %33
  %45 = load i64, ptr %44, align 8, !tbaa !17
  %46 = getelementptr inbounds nuw %struct.prio_queue_entry, ptr %43, i64 %.033
  %47 = load i64, ptr %46, align 8, !tbaa !17
  %48 = tail call i32 @llvm.ucmp.i32.i64(i64 %45, i64 %47)
  br label %compare.exit

compare.exit:                                     ; preds = %31, %42
  %.0.i = phi i32 [ %41, %31 ], [ %48, %42 ]
  %49 = icmp slt i32 %.0.i, 1
  br i1 %49, label %.loopexit, label %50

50:                                               ; preds = %compare.exit
  %.val = load ptr, ptr %26, align 8, !tbaa !12
  %51 = getelementptr inbounds nuw %struct.prio_queue_entry, ptr %.val, i64 %33
  %52 = getelementptr inbounds nuw %struct.prio_queue_entry, ptr %.val, i64 %.033
  call void @llvm.lifetime.start.p0(i64 16, ptr nonnull %3)
  call void @llvm.memcpy.p0.p0.i64(ptr noundef nonnull align 16 dereferenceable(16) %3, ptr noundef nonnull align 1 dereferenceable(16) %51, i64 16, i1 false)
  tail call void @llvm.memcpy.p0.p0.i64(ptr noundef nonnull align 1 dereferenceable(16) %51, ptr noundef nonnull align 1 dereferenceable(16) %52, i64 16, i1 false)
  call void @llvm.memcpy.p0.p0.i64(ptr noundef nonnull align 1 dereferenceable(16) %52, ptr noundef nonnull align 16 dereferenceable(16) %3, i64 16, i1 false)
  call void @llvm.lifetime.end.p0(i64 16, ptr nonnull %3)
  %.not31 = icmp ult i64 %32, 2
  br i1 %.not31, label %.loopexit, label %31, !llvm.loop !21

.loopexit:                                        ; preds = %compare.exit, %50, %20
  ret void
}